
program.elf:     file format elf32-littleriscv


Disassembly of section .text:

00000000 <start>:
   0:	00000093          	li	ra,0
   4:	00000113          	li	sp,0
   8:	00000193          	li	gp,0
   c:	00000213          	li	tp,0
  10:	00000293          	li	t0,0
  14:	00000313          	li	t1,0
  18:	00000393          	li	t2,0
  1c:	00000413          	li	s0,0
  20:	00000493          	li	s1,0
  24:	00000513          	li	a0,0
  28:	00000593          	li	a1,0
  2c:	00000613          	li	a2,0
  30:	00000693          	li	a3,0
  34:	00000713          	li	a4,0
  38:	00000793          	li	a5,0
  3c:	00000813          	li	a6,0
  40:	00000893          	li	a7,0
  44:	00000913          	li	s2,0
  48:	00000993          	li	s3,0
  4c:	00000a13          	li	s4,0
  50:	00000a93          	li	s5,0
  54:	00000b13          	li	s6,0
  58:	00000b93          	li	s7,0
  5c:	00000c13          	li	s8,0
  60:	00000c93          	li	s9,0
  64:	00000d13          	li	s10,0
  68:	00000d93          	li	s11,0
  6c:	00000e13          	li	t3,0
  70:	00000e93          	li	t4,0
  74:	00000f13          	li	t5,0
  78:	00000f93          	li	t6,0
  7c:	10000117          	auipc	sp,0x10000
  80:	08410113          	addi	sp,sp,132 # 10000100 <_stack_top>
  84:	008000ef          	jal	8c <ram_init>
  88:	09c000ef          	jal	124 <main>

0000008c <ram_init>:
  8c:	fe010113          	addi	sp,sp,-32
  90:	00112e23          	sw	ra,28(sp)
  94:	00812c23          	sw	s0,24(sp)
  98:	02010413          	addi	s0,sp,32
  9c:	1a000793          	li	a5,416
  a0:	fef42623          	sw	a5,-20(s0)
  a4:	100007b7          	lui	a5,0x10000
  a8:	00078793          	mv	a5,a5
  ac:	fef42423          	sw	a5,-24(s0)
  b0:	0240006f          	j	d4 <ram_init+0x48>
  b4:	fec42703          	lw	a4,-20(s0)
  b8:	00170793          	addi	a5,a4,1
  bc:	fef42623          	sw	a5,-20(s0)
  c0:	fe842783          	lw	a5,-24(s0)
  c4:	00178693          	addi	a3,a5,1 # 10000001 <_edata+0x1>
  c8:	fed42423          	sw	a3,-24(s0)
  cc:	00074703          	lbu	a4,0(a4)
  d0:	00e78023          	sb	a4,0(a5)
  d4:	fe842703          	lw	a4,-24(s0)
  d8:	100007b7          	lui	a5,0x10000
  dc:	00078793          	mv	a5,a5
  e0:	fcf76ae3          	bltu	a4,a5,b4 <ram_init+0x28>
  e4:	100007b7          	lui	a5,0x10000
  e8:	00078793          	mv	a5,a5
  ec:	fef42423          	sw	a5,-24(s0)
  f0:	0140006f          	j	104 <ram_init+0x78>
  f4:	fe842783          	lw	a5,-24(s0)
  f8:	00178713          	addi	a4,a5,1 # 10000001 <_edata+0x1>
  fc:	fee42423          	sw	a4,-24(s0)
 100:	00078023          	sb	zero,0(a5)
 104:	fe842703          	lw	a4,-24(s0)
 108:	1a000793          	li	a5,416
 10c:	fef764e3          	bltu	a4,a5,f4 <ram_init+0x68>
 110:	00000013          	nop
 114:	01c12083          	lw	ra,28(sp)
 118:	01812403          	lw	s0,24(sp)
 11c:	02010113          	addi	sp,sp,32
 120:	00008067          	ret

00000124 <main>:
 124:	fe010113          	addi	sp,sp,-32
 128:	00112e23          	sw	ra,28(sp)
 12c:	00812c23          	sw	s0,24(sp)
 130:	02010413          	addi	s0,sp,32
 134:	000207b7          	lui	a5,0x20
 138:	00010737          	lui	a4,0x10
 13c:	fff70713          	addi	a4,a4,-1 # ffff <_etext+0xfe5f>
 140:	00e7a023          	sw	a4,0(a5) # 20000 <_etext+0x1fe60>
 144:	fe042623          	sw	zero,-20(s0)
 148:	0140006f          	j	15c <main+0x38>
 14c:	00000013          	nop
 150:	fec42783          	lw	a5,-20(s0)
 154:	00178793          	addi	a5,a5,1
 158:	fef42623          	sw	a5,-20(s0)
 15c:	fec42703          	lw	a4,-20(s0)
 160:	0007a7b7          	lui	a5,0x7a
 164:	11f78793          	addi	a5,a5,287 # 7a11f <_etext+0x79f7f>
 168:	fee7f2e3          	bgeu	a5,a4,14c <main+0x28>
 16c:	000207b7          	lui	a5,0x20
 170:	0007a023          	sw	zero,0(a5) # 20000 <_etext+0x1fe60>
 174:	fe042423          	sw	zero,-24(s0)
 178:	0140006f          	j	18c <main+0x68>
 17c:	00000013          	nop
 180:	fe842783          	lw	a5,-24(s0)
 184:	00178793          	addi	a5,a5,1
 188:	fef42423          	sw	a5,-24(s0)
 18c:	fe842703          	lw	a4,-24(s0)
 190:	0007a7b7          	lui	a5,0x7a
 194:	11f78793          	addi	a5,a5,287 # 7a11f <_etext+0x79f7f>
 198:	fee7f2e3          	bgeu	a5,a4,17c <main+0x58>
 19c:	f99ff06f          	j	134 <main+0x10>
